; ModuleID = '4/659.c'
source_filename = "4/659.c"
target datalayout = "e-m:e-p270:32:32-p271:32:32-p272:64:64-i64:64-f80:128-n8:16:32:64-S128"
target triple = "x86_64-pc-linux-gnu"

@.str = private unnamed_addr constant [5 x i8] c"%d%d\00", align 1
@.str.1 = private unnamed_addr constant [3 x i8] c"%d\00", align 1
@.str.2 = private unnamed_addr constant [4 x i8] c"%d\0A\00", align 1

; Function Attrs: noinline nounwind uwtable
define dso_local void @main() #0 {
  %1 = alloca i32, align 4
  %2 = alloca i32, align 4
  %3 = alloca i32, align 4
  %4 = alloca i32, align 4
  %5 = alloca i32, align 4
  %6 = alloca [101 x [101 x i32]], align 16
  %7 = call i32 (i8*, ...) @__isoc99_scanf(i8* getelementptr inbounds ([5 x i8], [5 x i8]* @.str, i64 0, i64 0), i32* %1, i32* %2)
  store i32 0, i32* %4, align 4
  br label %8

8:                                                ; preds = %29, %0
  %9 = load i32, i32* %4, align 4
  %10 = load i32, i32* %1, align 4
  %11 = icmp slt i32 %9, %10
  br i1 %11, label %12, label %32

12:                                               ; preds = %8
  store i32 0, i32* %5, align 4
  br label %13

13:                                               ; preds = %25, %12
  %14 = load i32, i32* %5, align 4
  %15 = load i32, i32* %2, align 4
  %16 = icmp slt i32 %14, %15
  br i1 %16, label %17, label %28

17:                                               ; preds = %13
  %18 = load i32, i32* %4, align 4
  %19 = sext i32 %18 to i64
  %20 = getelementptr inbounds [101 x [101 x i32]], [101 x [101 x i32]]* %6, i64 0, i64 %19
  %21 = load i32, i32* %5, align 4
  %22 = sext i32 %21 to i64
  %23 = getelementptr inbounds [101 x i32], [101 x i32]* %20, i64 0, i64 %22
  %24 = call i32 (i8*, ...) @__isoc99_scanf(i8* getelementptr inbounds ([3 x i8], [3 x i8]* @.str.1, i64 0, i64 0), i32* %23)
  br label %25

25:                                               ; preds = %17
  %26 = load i32, i32* %5, align 4
  %27 = add nsw i32 %26, 1
  store i32 %27, i32* %5, align 4
  br label %13

28:                                               ; preds = %13
  br label %29

29:                                               ; preds = %28
  %30 = load i32, i32* %4, align 4
  %31 = add nsw i32 %30, 1
  store i32 %31, i32* %4, align 4
  br label %8

32:                                               ; preds = %8
  store i32 0, i32* %4, align 4
  br label %33

33:                                               ; preds = %78, %32
  %34 = load i32, i32* %4, align 4
  %35 = load i32, i32* %1, align 4
  %36 = load i32, i32* %2, align 4
  %37 = add nsw i32 %35, %36
  %38 = sub nsw i32 %37, 2
  %39 = icmp sle i32 %34, %38
  br i1 %39, label %40, label %81

40:                                               ; preds = %33
  store i32 0, i32* %3, align 4
  %41 = load i32, i32* %1, align 4
  %42 = sub nsw i32 %41, 1
  %43 = load i32, i32* %4, align 4
  %44 = icmp slt i32 %42, %43
  br i1 %44, label %45, label %48

45:                                               ; preds = %40
  %46 = load i32, i32* %1, align 4
  %47 = sub nsw i32 %46, 1
  store i32 %47, i32* %3, align 4
  br label %50

48:                                               ; preds = %40
  %49 = load i32, i32* %4, align 4
  store i32 %49, i32* %3, align 4
  br label %50

50:                                               ; preds = %48, %45
  store i32 0, i32* %5, align 4
  br label %51

51:                                               ; preds = %74, %50
  %52 = load i32, i32* %5, align 4
  %53 = load i32, i32* %3, align 4
  %54 = icmp sle i32 %52, %53
  br i1 %54, label %55, label %77

55:                                               ; preds = %51
  %56 = load i32, i32* %4, align 4
  %57 = load i32, i32* %5, align 4
  %58 = sub nsw i32 %56, %57
  %59 = load i32, i32* %2, align 4
  %60 = sub nsw i32 %59, 1
  %61 = icmp sle i32 %58, %60
  br i1 %61, label %62, label %73

62:                                               ; preds = %55
  %63 = load i32, i32* %5, align 4
  %64 = sext i32 %63 to i64
  %65 = getelementptr inbounds [101 x [101 x i32]], [101 x [101 x i32]]* %6, i64 0, i64 %64
  %66 = load i32, i32* %4, align 4
  %67 = load i32, i32* %5, align 4
  %68 = sub nsw i32 %66, %67
  %69 = sext i32 %68 to i64
  %70 = getelementptr inbounds [101 x i32], [101 x i32]* %65, i64 0, i64 %69
  %71 = load i32, i32* %70, align 4
  %72 = call i32 (i8*, ...) @printf(i8* getelementptr inbounds ([4 x i8], [4 x i8]* @.str.2, i64 0, i64 0), i32 %71)
  br label %73

73:                                               ; preds = %62, %55
  br label %74

74:                                               ; preds = %73
  %75 = load i32, i32* %5, align 4
  %76 = add nsw i32 %75, 1
  store i32 %76, i32* %5, align 4
  br label %51

77:                                               ; preds = %51
  br label %78

78:                                               ; preds = %77
  %79 = load i32, i32* %4, align 4
  %80 = add nsw i32 %79, 1
  store i32 %80, i32* %4, align 4
  br label %33

81:                                               ; preds = %33
  ret void
}

declare dso_local i32 @__isoc99_scanf(i8*, ...) #1

declare dso_local i32 @printf(i8*, ...) #1


!llvm.module.flags = !{!0}
!llvm.ident = !{!1}

!0 = !{i32 1, !"wchar_size", i32 4}
!1 = !{!"clang version 10.0.0-4ubuntu1 "}
