; ModuleID = 'source-C-CXX/3/659.c'
source_filename = "source-C-CXX/3/659.c"
target datalayout = "e-m:e-p270:32:32-p271:32:32-p272:64:64-i64:64-f80:128-n8:16:32:64-S128"
target triple = "x86_64-pc-linux-gnu"

@.str = private unnamed_addr constant [5 x i8] c"%d%d\00", align 1
@.str.1 = private unnamed_addr constant [3 x i8] c"%d\00", align 1
@.str.2 = private unnamed_addr constant [4 x i8] c"%d\0A\00", align 1

; Function Attrs: nofree nounwind sspstrong uwtable
define dso_local void @main() local_unnamed_addr #0 {
  %1 = alloca i32, align 4
  %2 = alloca i32, align 4
  %3 = alloca [101 x [101 x i32]], align 16
  %4 = bitcast i32* %1 to i8*
  call void @llvm.lifetime.start.p0i8(i64 4, i8* nonnull %4) #3
  %5 = bitcast i32* %2 to i8*
  call void @llvm.lifetime.start.p0i8(i64 4, i8* nonnull %5) #3
  %6 = call i32 (i8*, ...) @__isoc99_scanf(i8* getelementptr inbounds ([5 x i8], [5 x i8]* @.str, i64 0, i64 0), i32* nonnull %1, i32* nonnull %2)
  %7 = bitcast [101 x [101 x i32]]* %3 to i8*
  call void @llvm.lifetime.start.p0i8(i64 40804, i8* nonnull %7) #3
  %8 = load i32, i32* %1, align 4, !tbaa !5
  %9 = icmp sgt i32 %8, 0
  %10 = load i32, i32* %2, align 4, !tbaa !5
  %11 = icmp sgt i32 %10, 0
  %12 = select i1 %9, i1 %11, i1 false
  br i1 %12, label %13, label %18

13:                                               ; preds = %0, %34
  %14 = phi i32 [ %35, %34 ], [ %8, %0 ]
  %15 = phi i32 [ %36, %34 ], [ %10, %0 ]
  %16 = phi i64 [ %37, %34 ], [ 0, %0 ]
  %17 = icmp sgt i32 %15, 0
  br i1 %17, label %24, label %34

18:                                               ; preds = %34, %0
  %19 = phi i32 [ %10, %0 ], [ %36, %34 ]
  %20 = phi i32 [ %8, %0 ], [ %35, %34 ]
  %21 = add i32 %20, -2
  %22 = add i32 %21, %19
  %23 = icmp slt i32 %22, 0
  br i1 %23, label %79, label %40

24:                                               ; preds = %13, %24
  %25 = phi i64 [ %28, %24 ], [ 0, %13 ]
  %26 = getelementptr inbounds [101 x [101 x i32]], [101 x [101 x i32]]* %3, i64 0, i64 %16, i64 %25
  %27 = call i32 (i8*, ...) @__isoc99_scanf(i8* getelementptr inbounds ([3 x i8], [3 x i8]* @.str.1, i64 0, i64 0), i32* nonnull %26)
  %28 = add nuw nsw i64 %25, 1
  %29 = load i32, i32* %2, align 4, !tbaa !5
  %30 = sext i32 %29 to i64
  %31 = icmp slt i64 %28, %30
  br i1 %31, label %24, label %32, !llvm.loop !9

32:                                               ; preds = %24
  %33 = load i32, i32* %1, align 4, !tbaa !5
  br label %34

34:                                               ; preds = %32, %13
  %35 = phi i32 [ %33, %32 ], [ %14, %13 ]
  %36 = phi i32 [ %29, %32 ], [ %15, %13 ]
  %37 = add nuw nsw i64 %16, 1
  %38 = sext i32 %35 to i64
  %39 = icmp slt i64 %37, %38
  br i1 %39, label %13, label %18, !llvm.loop !11

40:                                               ; preds = %18, %71
  %41 = phi i32 [ %72, %71 ], [ %19, %18 ]
  %42 = phi i32 [ %73, %71 ], [ %20, %18 ]
  %43 = phi i64 [ %74, %71 ], [ 0, %18 ]
  %44 = sext i32 %42 to i64
  %45 = icmp slt i64 %43, %44
  %46 = add nsw i32 %42, -1
  %47 = trunc i64 %43 to i32
  %48 = select i1 %45, i32 %47, i32 %46
  %49 = icmp slt i32 %48, 0
  br i1 %49, label %71, label %50

50:                                               ; preds = %40
  %51 = add nuw i32 %48, 1
  %52 = zext i32 %51 to i64
  br label %53

53:                                               ; preds = %66, %50
  %54 = phi i32 [ %41, %50 ], [ %67, %66 ]
  %55 = phi i64 [ 0, %50 ], [ %64, %66 ]
  %56 = sub nsw i64 %43, %55
  %57 = sext i32 %54 to i64
  %58 = icmp slt i64 %56, %57
  br i1 %58, label %59, label %63

59:                                               ; preds = %53
  %60 = getelementptr inbounds [101 x [101 x i32]], [101 x [101 x i32]]* %3, i64 0, i64 %55, i64 %56
  %61 = load i32, i32* %60, align 4, !tbaa !5
  %62 = call i32 (i8*, ...) @printf(i8* nonnull dereferenceable(1) getelementptr inbounds ([4 x i8], [4 x i8]* @.str.2, i64 0, i64 0), i32 %61)
  br label %63

63:                                               ; preds = %53, %59
  %64 = add nuw nsw i64 %55, 1
  %65 = icmp eq i64 %64, %52
  br i1 %65, label %68, label %66, !llvm.loop !13

66:                                               ; preds = %63
  %67 = load i32, i32* %2, align 4, !tbaa !5
  br label %53

68:                                               ; preds = %63
  %69 = load i32, i32* %1, align 4, !tbaa !5
  %70 = load i32, i32* %2, align 4, !tbaa !5
  br label %71

71:                                               ; preds = %68, %40
  %72 = phi i32 [ %70, %68 ], [ %41, %40 ]
  %73 = phi i32 [ %69, %68 ], [ %42, %40 ]
  %74 = add nuw nsw i64 %43, 1
  %75 = add i32 %73, -2
  %76 = add i32 %75, %72
  %77 = sext i32 %76 to i64
  %78 = icmp slt i64 %43, %77
  br i1 %78, label %40, label %79, !llvm.loop !14

79:                                               ; preds = %71, %18
  call void @llvm.lifetime.end.p0i8(i64 40804, i8* nonnull %7) #3
  call void @llvm.lifetime.end.p0i8(i64 4, i8* nonnull %5) #3
  call void @llvm.lifetime.end.p0i8(i64 4, i8* nonnull %4) #3
  ret void
}

; Function Attrs: argmemonly mustprogress nofree nosync nounwind willreturn
declare void @llvm.lifetime.start.p0i8(i64 immarg, i8* nocapture) #1

; Function Attrs: nofree nounwind
declare noundef i32 @__isoc99_scanf(i8* nocapture noundef readonly, ...) local_unnamed_addr #2

; Function Attrs: nofree nounwind
declare noundef i32 @printf(i8* nocapture noundef readonly, ...) local_unnamed_addr #2

; Function Attrs: argmemonly mustprogress nofree nosync nounwind willreturn
declare void @llvm.lifetime.end.p0i8(i64 immarg, i8* nocapture) #1


!llvm.module.flags = !{!0, !1, !2, !3}
!llvm.ident = !{!4}

!0 = !{i32 1, !"wchar_size", i32 4}
!1 = !{i32 7, !"PIC Level", i32 2}
!2 = !{i32 7, !"PIE Level", i32 2}
!3 = !{i32 7, !"uwtable", i32 1}
!4 = !{!"clang version 13.0.0"}
!5 = !{!6, !6, i64 0}
!6 = !{!"int", !7, i64 0}
!7 = !{!"omnipotent char", !8, i64 0}
!8 = !{!"Simple C/C++ TBAA"}
!9 = distinct !{!9, !10}
!10 = !{!"llvm.loop.mustprogress"}
!11 = distinct !{!11, !10, !12}
!12 = !{!"llvm.loop.unswitch.partial.disable"}
!13 = distinct !{!13, !10}
!14 = distinct !{!14, !10}
